target datalayout = "e-m:e-p270:32:32-p271:32:32-p272:64:64-i64:64-i128:128-f80:128-n8:16:32:64-S128"
target triple = "x86_64-pc-linux-gnu"

%struct.Llb_Mtr_t_ = type { i32, i32, i32, i32, ptr, ptr, ptr, ptr, ptr, ptr, ptr }

@Llb_MtrVarName.Buffer = internal global [10 x i8] zeroinitializer, align 1
@.str = private unnamed_addr constant [3 x i8] c"pi\00", align 1
@.str.1 = private unnamed_addr constant [3 x i8] c"CS\00", align 1
@.str.2 = private unnamed_addr constant [3 x i8] c"NS\00", align 1
@.str.3 = private unnamed_addr constant [4 x i8] c"int\00", align 1

; Function Attrs: nounwind uwtable
define ptr @Llb_MtrVarName(ptr noundef %0, i32 noundef %1) #0 {
  %3 = alloca ptr, align 8
  %4 = alloca i32, align 4
  store ptr %0, ptr %3, align 8, !tbaa !3
  store i32 %1, ptr %4, align 4, !tbaa !8
  %5 = load i32, ptr %4, align 4, !tbaa !8
  %6 = load ptr, ptr %3, align 8, !tbaa !3
  %7 = getelementptr inbounds nuw %struct.Llb_Mtr_t_, ptr %6, i32 0, i32 0
  %8 = load i32, ptr %7, align 8, !tbaa !31
  %9 = icmp slt i32 %5, %8
  br i1 %9, label %10, label %12

10:                                               ; preds = %2
  %11 = call ptr @strcpy(ptr noundef @Llb_MtrVarName.Buffer, ptr noundef @.str) #8
  br label %40

12:                                               ; preds = %2
  %13 = load i32, ptr %4, align 4, !tbaa !8
  %14 = load ptr, ptr %3, align 8, !tbaa !3
  %15 = getelementptr inbounds nuw %struct.Llb_Mtr_t_, ptr %14, i32 0, i32 0
  %16 = load i32, ptr %15, align 8, !tbaa !31
  %17 = load ptr, ptr %3, align 8, !tbaa !3
  %18 = getelementptr inbounds nuw %struct.Llb_Mtr_t_, ptr %17, i32 0, i32 1
  %19 = load i32, ptr %18, align 4, !tbaa !32
  %20 = add nsw i32 %16, %19
  %21 = icmp slt i32 %13, %20
  br i1 %21, label %22, label %24

22:                                               ; preds = %12
  %23 = call ptr @strcpy(ptr noundef @Llb_MtrVarName.Buffer, ptr noundef @.str.1) #8
  br label %39

24:                                               ; preds = %12
  %25 = load i32, ptr %4, align 4, !tbaa !8
  %26 = load ptr, ptr %3, align 8, !tbaa !3
  %27 = getelementptr inbounds nuw %struct.Llb_Mtr_t_, ptr %26, i32 0, i32 2
  %28 = load i32, ptr %27, align 8, !tbaa !17
  %29 = load ptr, ptr %3, align 8, !tbaa !3
  %30 = getelementptr inbounds nuw %struct.Llb_Mtr_t_, ptr %29, i32 0, i32 1
  %31 = load i32, ptr %30, align 4, !tbaa !32
  %32 = sub nsw i32 %28, %31
  %33 = icmp sge i32 %25, %32
  br i1 %33, label %34, label %36

34:                                               ; preds = %24
  %35 = call ptr @strcpy(ptr noundef @Llb_MtrVarName.Buffer, ptr noundef @.str.2) #8
  br label %38

36:                                               ; preds = %24
  %37 = call ptr @strcpy(ptr noundef @Llb_MtrVarName.Buffer, ptr noundef @.str.3) #8
  br label %38

38:                                               ; preds = %36, %34
  br label %39

39:                                               ; preds = %38, %22
  br label %40

40:                                               ; preds = %39, %10
  ret ptr @Llb_MtrVarName.Buffer
}