; Function Attrs: mustprogress nofree norecurse nosync nounwind willreturn memory(readwrite, argmem: read, inaccessiblemem: none) uwtable
define noundef nonnull ptr @Llb_MtrVarName(ptr noundef readonly captures(none) %0, i32 noundef %1) local_unnamed_addr #5 {
  %3 = load i32, ptr %0, align 8, !tbaa !24
  %4 = icmp slt i32 %1, %3
  br i1 %4, label %5, label %6

5:                                                ; preds = %2
  tail call void @llvm.memcpy.p0.p0.i64(ptr noundef nonnull align 4 dereferenceable(3) @Llb_MtrVarName.Buffer, ptr noundef nonnull align 1 dereferenceable(3) @.str, i64 3, i1 false) #19
  br label %18

6:                                                ; preds = %2
  %7 = getelementptr inbounds nuw i8, ptr %0, i64 4
  %8 = load i32, ptr %7, align 4, !tbaa !25
  %9 = add nsw i32 %8, %3
  %10 = icmp slt i32 %1, %9
  br i1 %10, label %11, label %12

11:                                               ; preds = %6
  tail call void @llvm.memcpy.p0.p0.i64(ptr noundef nonnull align 4 dereferenceable(3) @Llb_MtrVarName.Buffer, ptr noundef nonnull align 1 dereferenceable(3) @.str.1, i64 3, i1 false) #19
  br label %18

12:                                               ; preds = %6
  %13 = getelementptr inbounds nuw i8, ptr %0, i64 8
  %14 = load i32, ptr %13, align 8, !tbaa !3
  %15 = sub nsw i32 %14, %8
  %.not = icmp slt i32 %1, %15
  br i1 %.not, label %17, label %16

16:                                               ; preds = %12
  tail call void @llvm.memcpy.p0.p0.i64(ptr noundef nonnull align 4 dereferenceable(3) @Llb_MtrVarName.Buffer, ptr noundef nonnull align 1 dereferenceable(3) @.str.2, i64 3, i1 false) #19
  br label %18

17:                                               ; preds = %12
  store i32 7630441, ptr @Llb_MtrVarName.Buffer, align 4
  br label %18

18:                                               ; preds = %11, %17, %16, %5
  ret ptr @Llb_MtrVarName.Buffer
}